; Function Attrs: mustprogress uwtable
define noundef double @_ZNK8QuantLib13DigitalCoupon19convexityAdjustmentEv(ptr nocapture noundef nonnull readonly align 8 dereferenceable(289) %this) unnamed_addr #8 align 2 {
entry:
  %underlying_ = getelementptr inbounds nuw i8, ptr %this, i64 176
  %0 = load ptr, ptr %underlying_, align 8, !tbaa !50
  %cmp.not.i = icmp eq ptr %0, null
  br i1 %cmp.not.i, label %cond.false.i, label %_ZNK5boost10shared_ptrIN8QuantLib18FloatingRateCouponEEptEv.exit, !prof !52

cond.false.i:                                     ; preds = %entry
  tail call void @_ZN5boost16assertion_failedEPKcS1_S1_l(ptr noundef nonnull @.str.16, ptr noundef nonnull @__PRETTY_FUNCTION__._ZNK5boost10shared_ptrIN8QuantLib18FloatingRateCouponEEptEv, ptr noundef nonnull @.str.17, i64 noundef 784)
  %.pre.i = load ptr, ptr %underlying_, align 8, !tbaa !50
  br label %_ZNK5boost10shared_ptrIN8QuantLib18FloatingRateCouponEEptEv.exit

_ZNK5boost10shared_ptrIN8QuantLib18FloatingRateCouponEEptEv.exit: ; preds = %entry, %cond.false.i
  %1 = phi ptr [ %0, %entry ], [ %.pre.i, %cond.false.i ]
  %vtable = load ptr, ptr %1, align 8, !tbaa !33
  %vfn = getelementptr inbounds i8, ptr %vtable, i64 112
  %2 = load ptr, ptr %vfn, align 8
  %call2 = tail call noundef double %2(ptr noundef nonnull align 8 dereferenceable(176) %1)
  ret double %call2
}